target datalayout = "e-m:e-p270:32:32-p271:32:32-p272:64:64-i64:64-i128:128-f80:128-n8:16:32:64-S128"
target triple = "x86_64-pc-linux-gnu"

; Function Attrs: mustprogress nounwind uwtable
define hidden noundef ptr @_ZN2cv12cpu_baseline19getConvertScaleFuncEii(i32 noundef %0, i32 noundef %1) #0 {
  %3 = alloca i32, align 4
  %4 = alloca i32, align 4
  store i32 %0, ptr %3, align 4, !tbaa !3
  store i32 %1, ptr %4, align 4, !tbaa !3
  %5 = load i32, ptr %4, align 4, !tbaa !3
  %6 = and i32 %5, 7
  %7 = sext i32 %6 to i64
  %8 = getelementptr inbounds [8 x [8 x ptr]], ptr @_ZZN2cv12cpu_baseline19getConvertScaleFuncEiiE11cvtScaleTab, i64 0, i64 %7
  %9 = load i32, ptr %3, align 4, !tbaa !3
  %10 = and i32 %9, 7
  %11 = sext i32 %10 to i64
  %12 = getelementptr inbounds [8 x ptr], ptr %8, i64 0, i64 %11
  %13 = load ptr, ptr %12, align 8, !tbaa !7
  ret ptr %13
}